target datalayout = "e-m:e-p270:32:32-p271:32:32-p272:64:64-i64:64-i128:128-f80:128-n8:16:32:64-S128"
target triple = "x86_64-pc-linux-gnu"

%"class.std::__cxx11::basic_string" = type { %"struct.std::__cxx11::basic_string<char>::_Alloc_hider", i64, %union.anon }
%"struct.std::__cxx11::basic_string<char>::_Alloc_hider" = type { ptr }
%union.anon = type { i64, [8 x i8] }
%class.colvar_grid.base.118 = type <{ %class.colvarparse, i64, %"class.std::vector.24", %"class.std::vector.24", i64, i64, %"class.std::vector.45", %"class.std::vector.29", %"class.std::vector.34", %"class.std::vector.39", %"class.std::vector.40", %"class.std::vector.40", %"class.std::vector.39", %"class.std::vector.39", %"class.std::vector.39", %"class.std::vector.45", i8, i8 }>
%class.colvarparse = type { %class.colvarparams, %"class.std::__cxx11::basic_string", %"class.std::__cxx11::basic_string", %"class.std::__cxx11::list", %"class.std::map.14", %"class.std::__cxx11::list.19", %"class.std::__cxx11::list.19", %"class.std::__cxx11::basic_string" }
%class.colvarparams = type { ptr, %"class.std::map", %"class.std::map.3" }
%"class.std::map" = type { %"class.std::_Rb_tree" }
%"class.std::_Rb_tree" = type { %"struct.std::_Rb_tree<std::__cxx11::basic_string<char>, std::pair<const std::__cxx11::basic_string<char>, const void *>, std::_Select1st<std::pair<const std::__cxx11::basic_string<char>, const void *>>, std::less<std::__cxx11::basic_string<char>>>::_Rb_tree_impl" }
%"struct.std::_Rb_tree<std::__cxx11::basic_string<char>, std::pair<const std::__cxx11::basic_string<char>, const void *>, std::_Select1st<std::pair<const std::__cxx11::basic_string<char>, const void *>>, std::less<std::__cxx11::basic_string<char>>>::_Rb_tree_impl" = type { [8 x i8], %"struct.std::_Rb_tree_header" }
%"struct.std::_Rb_tree_header" = type { %"struct.std::_Rb_tree_node_base", i64 }
%"struct.std::_Rb_tree_node_base" = type { i32, ptr, ptr, ptr }
%"class.std::map.3" = type { %"class.std::_Rb_tree.4" }
%"class.std::_Rb_tree.4" = type { %"struct.std::_Rb_tree<std::__cxx11::basic_string<char>, std::pair<const std::__cxx11::basic_string<char>, const colvarvalue *>, std::_Select1st<std::pair<const std::__cxx11::basic_string<char>, const colvarvalue *>>, std::less<std::__cxx11::basic_string<char>>>::_Rb_tree_impl" }
%"struct.std::_Rb_tree<std::__cxx11::basic_string<char>, std::pair<const std::__cxx11::basic_string<char>, const colvarvalue *>, std::_Select1st<std::pair<const std::__cxx11::basic_string<char>, const colvarvalue *>>, std::less<std::__cxx11::basic_string<char>>>::_Rb_tree_impl" = type { [8 x i8], %"struct.std::_Rb_tree_header" }
%"class.std::__cxx11::list" = type { %"class.std::__cxx11::_List_base" }
%"class.std::__cxx11::_List_base" = type { %"struct.std::__cxx11::_List_base<std::__cxx11::basic_string<char>, std::allocator<std::__cxx11::basic_string<char>>>::_List_impl" }
%"struct.std::__cxx11::_List_base<std::__cxx11::basic_string<char>, std::allocator<std::__cxx11::basic_string<char>>>::_List_impl" = type { %"struct.std::__detail::_List_node_header" }
%"struct.std::__detail::_List_node_header" = type { %"struct.std::__detail::_List_node_base", i64 }
%"struct.std::__detail::_List_node_base" = type { ptr, ptr }
%"class.std::map.14" = type { %"class.std::_Rb_tree.15" }
%"class.std::_Rb_tree.15" = type { %"struct.std::_Rb_tree<std::__cxx11::basic_string<char>, std::pair<const std::__cxx11::basic_string<char>, colvarparse::key_set_mode>, std::_Select1st<std::pair<const std::__cxx11::basic_string<char>, colvarparse::key_set_mode>>, std::less<std::__cxx11::basic_string<char>>>::_Rb_tree_impl" }
%"struct.std::_Rb_tree<std::__cxx11::basic_string<char>, std::pair<const std::__cxx11::basic_string<char>, colvarparse::key_set_mode>, std::_Select1st<std::pair<const std::__cxx11::basic_string<char>, colvarparse::key_set_mode>>, std::less<std::__cxx11::basic_string<char>>>::_Rb_tree_impl" = type { [8 x i8], %"struct.std::_Rb_tree_header" }
%"class.std::__cxx11::list.19" = type { %"class.std::__cxx11::_List_base.20" }
%"class.std::__cxx11::_List_base.20" = type { %"struct.std::__cxx11::_List_base<unsigned long, std::allocator<unsigned long>>::_List_impl" }
%"struct.std::__cxx11::_List_base<unsigned long, std::allocator<unsigned long>>::_List_impl" = type { %"struct.std::__detail::_List_node_header" }
%"class.std::vector.24" = type { %"struct.std::_Vector_base.25" }
%"struct.std::_Vector_base.25" = type { %"struct.std::_Vector_base<int, std::allocator<int>>::_Vector_impl" }
%"struct.std::_Vector_base<int, std::allocator<int>>::_Vector_impl" = type { %"struct.std::_Vector_base<int, std::allocator<int>>::_Vector_impl_data" }
%"struct.std::_Vector_base<int, std::allocator<int>>::_Vector_impl_data" = type { ptr, ptr, ptr }
%"class.std::vector.29" = type { %"struct.std::_Vector_base.30" }
%"struct.std::_Vector_base.30" = type { %"struct.std::_Vector_base<unsigned long, std::allocator<unsigned long>>::_Vector_impl" }
%"struct.std::_Vector_base<unsigned long, std::allocator<unsigned long>>::_Vector_impl" = type { %"struct.std::_Vector_base<unsigned long, std::allocator<unsigned long>>::_Vector_impl_data" }
%"struct.std::_Vector_base<unsigned long, std::allocator<unsigned long>>::_Vector_impl_data" = type { ptr, ptr, ptr }
%"class.std::vector.34" = type { %"struct.std::_Vector_base.35" }
%"struct.std::_Vector_base.35" = type { %"struct.std::_Vector_base<colvar *, std::allocator<colvar *>>::_Vector_impl" }
%"struct.std::_Vector_base<colvar *, std::allocator<colvar *>>::_Vector_impl" = type { %"struct.std::_Vector_base<colvar *, std::allocator<colvar *>>::_Vector_impl_data" }
%"struct.std::_Vector_base<colvar *, std::allocator<colvar *>>::_Vector_impl_data" = type { ptr, ptr, ptr }
%"class.std::vector.40" = type { %"struct.std::_Vector_base.41" }
%"struct.std::_Vector_base.41" = type { %"struct.std::_Vector_base<colvarvalue, std::allocator<colvarvalue>>::_Vector_impl" }
%"struct.std::_Vector_base<colvarvalue, std::allocator<colvarvalue>>::_Vector_impl" = type { %"struct.std::_Vector_base<colvarvalue, std::allocator<colvarvalue>>::_Vector_impl_data" }
%"struct.std::_Vector_base<colvarvalue, std::allocator<colvarvalue>>::_Vector_impl_data" = type { ptr, ptr, ptr }
%"class.std::vector.39" = type { %"struct.std::_Bvector_base" }
%"struct.std::_Bvector_base" = type { %"struct.std::_Bvector_base<std::allocator<bool>>::_Bvector_impl" }
%"struct.std::_Bvector_base<std::allocator<bool>>::_Bvector_impl" = type { %"struct.std::_Bvector_base<std::allocator<bool>>::_Bvector_impl_data" }
%"struct.std::_Bvector_base<std::allocator<bool>>::_Bvector_impl_data" = type { %"struct.std::_Bit_iterator", %"struct.std::_Bit_iterator", ptr }
%"struct.std::_Bit_iterator" = type { %"struct.std::_Bit_iterator_base.base", [4 x i8] }
%"struct.std::_Bit_iterator_base.base" = type <{ ptr, i32 }>
%"class.std::vector.45" = type { %"struct.std::_Vector_base.46" }
%"struct.std::_Vector_base.46" = type { %"struct.std::_Vector_base<double, std::allocator<double>>::_Vector_impl" }
%"struct.std::_Vector_base<double, std::allocator<double>>::_Vector_impl" = type { %"struct.std::_Vector_base<double, std::allocator<double>>::_Vector_impl_data" }
%"struct.std::_Vector_base<double, std::allocator<double>>::_Vector_impl_data" = type { ptr, ptr, ptr }
%class.colvar_grid_gradient = type { %class.colvar_grid.base.118, %"class.std::shared_ptr", i32, i32 }
%"class.std::shared_ptr" = type { %"class.std::__shared_ptr" }
%"class.std::__shared_ptr" = type { ptr, %"class.std::__shared_count" }
%"class.std::__shared_count" = type { ptr }

; Function Attrs: mustprogress nounwind uwtable
define linkonce_odr void @_ZNSt14__shared_countILN9__gnu_cxx12_Lock_policyE2EEC2Ev(ptr noundef nonnull align 8 dereferenceable(8) %0) unnamed_addr #1 comdat align 2 {
  %2 = alloca ptr, align 8
  store ptr %0, ptr %2, align 8, !tbaa !557
  %3 = load ptr, ptr %2, align 8
  %4 = getelementptr inbounds nuw %"class.std::__shared_count", ptr %3, i32 0, i32 0
  store ptr null, ptr %4, align 8, !tbaa !559
  ret void
}

; Function Attrs: mustprogress nounwind uwtable
define linkonce_odr void @_ZNSt12__shared_ptrI17colvar_grid_countLN9__gnu_cxx12_Lock_policyE2EEC2Ev(ptr noundef nonnull align 8 dereferenceable(16) %0) unnamed_addr #1 comdat align 2 {
  %2 = alloca ptr, align 8
  store ptr %0, ptr %2, align 8, !tbaa !554
  %3 = load ptr, ptr %2, align 8
  %4 = getelementptr inbounds nuw %"class.std::__shared_ptr", ptr %3, i32 0, i32 0
  store ptr null, ptr %4, align 8, !tbaa !556
  %5 = getelementptr inbounds nuw %"class.std::__shared_ptr", ptr %3, i32 0, i32 1
  call void @_ZNSt14__shared_countILN9__gnu_cxx12_Lock_policyE2EEC2Ev(ptr noundef nonnull align 8 dereferenceable(8) %5) #6
  ret void
}

; Function Attrs: mustprogress nounwind uwtable
define linkonce_odr void @_ZNSt10shared_ptrI17colvar_grid_countEC2Ev(ptr noundef nonnull align 8 dereferenceable(16) %0) unnamed_addr #1 comdat align 2 {
  %2 = alloca ptr, align 8
  store ptr %0, ptr %2, align 8, !tbaa !550
  %3 = load ptr, ptr %2, align 8
  call void @_ZNSt12__shared_ptrI17colvar_grid_countLN9__gnu_cxx12_Lock_policyE2EEC2Ev(ptr noundef nonnull align 8 dereferenceable(16) %3) #6
  ret void
}

; Function Attrs: mustprogress nounwind uwtable
define linkonce_odr void @_ZNSt10shared_ptrI17colvar_grid_countEC2EDn(ptr noundef nonnull align 8 dereferenceable(16) %0, ptr %1) unnamed_addr #1 comdat align 2 {
  %3 = alloca ptr, align 8
  %4 = alloca ptr, align 8
  store ptr %0, ptr %3, align 8, !tbaa !550
  store ptr %1, ptr %4, align 8, !tbaa !552
  %5 = load ptr, ptr %3, align 8
  call void @_ZNSt10shared_ptrI17colvar_grid_countEC2Ev(ptr noundef nonnull align 8 dereferenceable(16) %5) #6
  ret void
}

; Function Attrs: mustprogress nounwind uwtable
define linkonce_odr noundef i64 @_ZNKSt6vectorIiSaIiEE4sizeEv(ptr noundef nonnull align 8 dereferenceable(24) %0) #1 comdat align 2 {
  %2 = alloca ptr, align 8
  store ptr %0, ptr %2, align 8, !tbaa !9
  %3 = load ptr, ptr %2, align 8
  %4 = getelementptr inbounds nuw %"struct.std::_Vector_base.25", ptr %3, i32 0, i32 0
  %5 = getelementptr inbounds nuw %"struct.std::_Vector_base<int, std::allocator<int>>::_Vector_impl_data", ptr %4, i32 0, i32 1
  %6 = load ptr, ptr %5, align 8, !tbaa !121
  %7 = getelementptr inbounds nuw %"struct.std::_Vector_base.25", ptr %3, i32 0, i32 0
  %8 = getelementptr inbounds nuw %"struct.std::_Vector_base<int, std::allocator<int>>::_Vector_impl_data", ptr %7, i32 0, i32 0
  %9 = load ptr, ptr %8, align 8, !tbaa !120
  %10 = ptrtoint ptr %6 to i64
  %11 = ptrtoint ptr %9 to i64
  %12 = sub i64 %10, %11
  %13 = sdiv exact i64 %12, 4
  ret i64 %13
}

; Function Attrs: mustprogress uwtable
define void @_ZN20colvar_grid_gradientC2ERKSt6vectorIiSaIiEE(ptr noundef nonnull align 8 dereferenceable(728) %0, ptr noundef nonnull align 8 dereferenceable(24) %1) unnamed_addr #3 align 2 {
  %3 = alloca ptr, align 8
  %4 = alloca ptr, align 8
  %5 = alloca double, align 8
  store ptr %0, ptr %3, align 8, !tbaa !541
  store ptr %1, ptr %4, align 8, !tbaa !9
  %6 = load ptr, ptr %3, align 8
  %7 = load ptr, ptr %4, align 8, !tbaa !9
  call void @llvm.lifetime.start.p0(i64 8, ptr %5) #6
  store double 0.000000e+00, ptr %5, align 8, !tbaa !82
  %8 = load ptr, ptr %4, align 8, !tbaa !9
  %9 = call noundef i64 @_ZNKSt6vectorIiSaIiEE4sizeEv(ptr noundef nonnull align 8 dereferenceable(24) %8) #6
  call void @_ZN11colvar_gridIdEC2ERKSt6vectorIiSaIiEERKdm(ptr noundef nonnull align 8 dereferenceable(698) %6, ptr noundef nonnull align 8 dereferenceable(24) %7, ptr noundef nonnull align 8 dereferenceable(8) %5, i64 noundef %9)
  call void @llvm.lifetime.end.p0(i64 8, ptr %5) #6
  store ptr getelementptr inbounds inrange(-16, 88) ({ [13 x ptr] }, ptr @_ZTV20colvar_grid_gradient, i32 0, i32 0, i32 2), ptr %6, align 8, !tbaa !90
  %10 = getelementptr inbounds nuw %class.colvar_grid_gradient, ptr %6, i32 0, i32 1
  call void @_ZNSt10shared_ptrI17colvar_grid_countEC2EDn(ptr noundef nonnull align 8 dereferenceable(16) %10, ptr null) #6
  %11 = getelementptr inbounds nuw %class.colvar_grid_gradient, ptr %6, i32 0, i32 2
  store i32 0, ptr %11, align 8, !tbaa !543
  %12 = getelementptr inbounds nuw %class.colvar_grid_gradient, ptr %6, i32 0, i32 3
  store i32 0, ptr %12, align 4, !tbaa !549
  ret void
}